Certificate:
    Data:
        Version: 3 (0x2)
        Serial Number:
            f6:99:2e:c3:f1:a5:12:79
    Signature Algorithm: sha1WithRSAEncryption
        Issuer: C=US, ST=AL, O=Auburn Univ, OU=ECPE, CN=Robert/emailAddress=rjs0015@auburn.edu
        Validity
            Not Before: Oct 27 04:08:57 2014 GMT
            Not After : Oct 26 04:08:57 2017 GMT
        Subject: C=US, ST=AL, O=Auburn Univ, OU=ECPE, CN=Robert/emailAddress=rjs0015@auburn.edu
        Subject Public Key Info:
            Public Key Algorithm: rsaEncryption
                Public-Key: (1024 bit)
                Modulus:
                    00:dc:c4:4b:36:a2:04:a5:4e:8f:df:ef:ea:e1:0b:
                    62:98:42:92:b4:9b:b8:b4:ca:4c:85:aa:90:25:99:
                    0a:87:d9:e7:11:17:bf:5b:b4:79:f3:6f:c5:3d:93:
                    f9:f6:3a:0b:e7:5c:74:37:cc:ff:76:91:23:17:a8:
                    68:26:79:a3:a7:2e:db:8a:1a:3b:7b:a9:ed:22:ad:
                    47:48:bd:1d:59:aa:72:7e:08:1a:71:c7:3b:02:77:
                    47:7c:2b:36:22:cf:41:59:ec:5a:a3:bb:7e:84:60:
                    ad:dc:20:3a:92:36:ec:6c:31:3a:59:2c:3f:1e:c5:
                    36:b8:e2:36:c5:3c:6a:85:51
                Exponent: 65537 (0x10001)
        X509v3 extensions:
            X509v3 Subject Key Identifier: 
                5B:D2:12:D9:59:8A:25:64:FC:5F:F5:87:B3:B4:64:71:30:AC:6A:8C
            X509v3 Authority Key Identifier: 
                keyid:5B:D2:12:D9:59:8A:25:64:FC:5F:F5:87:B3:B4:64:71:30:AC:6A:8C

            X509v3 Basic Constraints: 
                CA:TRUE
    Signature Algorithm: sha1WithRSAEncryption
         c2:ce:70:dc:9e:f5:e3:59:6f:01:d0:4b:6b:e9:78:62:f1:4c:
         b7:63:dc:3c:15:07:fb:c0:29:99:32:46:4a:bf:64:74:db:9f:
         07:ba:71:ce:64:4e:7a:77:11:e0:87:2c:7f:d8:6e:da:92:3a:
         e8:12:b7:6a:94:4c:96:3b:03:b0:e8:89:9d:48:f8:4c:e0:af:
         a5:1d:50:08:54:62:74:7e:1b:6c:be:53:5f:ae:8b:9a:4d:45:
         f1:5c:c0:78:56:ec:16:f0:4a:3b:e2:0c:40:79:16:29:0d:9e:
         7d:ce:e2:21:37:67:49:81:4d:34:52:1c:1c:fc:64:9a:a0:18:
         fa:de
-----BEGIN CERTIFICATE-----
MIICtDCCAh2gAwIBAgIJAPaZLsPxpRJ5MA0GCSqGSIb3DQEBBQUAMHMxCzAJBgNV
BAYTAlVTMQswCQYDVQQIDAJBTDEUMBIGA1UECgwLQXVidXJuIFVuaXYxDTALBgNV
BAsMBEVDUEUxDzANBgNVBAMMBlJvYmVydDEhMB8GCSqGSIb3DQEJARYScmpzMDAx
NUBhdWJ1cm4uZWR1MB4XDTE0MTAyNzA0MDg1N1oXDTE3MTAyNjA0MDg1N1owczEL
MAkGA1UEBhMCVVMxCzAJBgNVBAgMAkFMMRQwEgYDVQQKDAtBdWJ1cm4gVW5pdjEN
MAsGA1UECwwERUNQRTEPMA0GA1UEAwwGUm9iZXJ0MSEwHwYJKoZIhvcNAQkBFhJy
anMwMDE1QGF1YnVybi5lZHUwgZ8wDQYJKoZIhvcNAQEBBQADgY0AMIGJAoGBANzE
SzaiBKVOj9/v6uELYphCkrSbuLTKTIWqkCWZCofZ5xEXv1u0efNvxT2T+fY6C+dc
dDfM/3aRIxeoaCZ5o6cu24oaO3up7SKtR0i9HVmqcn4IGnHHOwJ3R3wrNiLPQVns
WqO7foRgrdwgOpI27GwxOlksPx7FNrjiNsU8aoVRAgMBAAGjUDBOMB0GA1UdDgQW
BBRb0hLZWYolZPxf9YeztGRxMKxqjDAfBgNVHSMEGDAWgBRb0hLZWYolZPxf9Yez
tGRxMKxqjDAMBgNVHRMEBTADAQH/MA0GCSqGSIb3DQEBBQUAA4GBAMLOcNye9eNZ
bwHQS2vpeGLxTLdj3DwVB/vAKZkyRkq/ZHTbnwe6cc5kTnp3EeCHLH/YbtqSOugS
t2qUTJY7A7DoiZ1I+Ezgr6UdUAhUYnR+G2y+U1+ui5pNRfFcwHhW7BbwSjviDEB5
FikNnn3O4iE3Z0mBTTRSHBz8ZJqgGPre
-----END CERTIFICATE-----
